target datalayout = "e-m:e-p270:32:32-p271:32:32-p272:64:64-i64:64-i128:128-f80:128-n8:16:32:64-S128"
target triple = "x86_64-pc-linux-gnu"

%struct.FunctionCallInfoBaseData = type { ptr, ptr, ptr, i32, i8, i16, [0 x %struct.NullableDatum] }
%struct.NullableDatum = type { i64, i8 }
%union.anon.1 = type { double }
%struct.macaddr = type { i8, i8, i8, i8, i8, i8 }

; Function Attrs: inlinehint nounwind uwtable
define internal i64 @Int64GetDatum(i64 noundef %0) #3 {
  %2 = alloca i64, align 8
  store i64 %0, ptr %2, align 8
  %3 = load i64, ptr %2, align 8
  ret i64 %3
}

; Function Attrs: inlinehint nounwind uwtable
define internal ptr @DatumGetPointer(i64 noundef %0) #3 {
  %2 = alloca i64, align 8
  store i64 %0, ptr %2, align 8
  %3 = load i64, ptr %2, align 8
  %4 = inttoptr i64 %3 to ptr
  ret ptr %4
}

; Function Attrs: inlinehint nounwind uwtable
define internal i64 @Float8GetDatum(double noundef %0) #3 {
  %2 = alloca double, align 8
  %3 = alloca %union.anon.1, align 8
  store double %0, ptr %2, align 8
  call void @llvm.lifetime.start.p0(i64 8, ptr %3) #8
  %4 = load double, ptr %2, align 8
  store double %4, ptr %3, align 8
  %5 = load i64, ptr %3, align 8
  %6 = call i64 @Int64GetDatum(i64 noundef %5)
  call void @llvm.lifetime.end.p0(i64 8, ptr %3) #8
  ret i64 %6
}

; Function Attrs: inlinehint nounwind uwtable
define internal ptr @DatumGetMacaddrP(i64 noundef %0) #3 {
  %2 = alloca i64, align 8
  store i64 %0, ptr %2, align 8
  %3 = load i64, ptr %2, align 8
  %4 = call ptr @DatumGetPointer(i64 noundef %3)
  ret ptr %4
}

; Function Attrs: nounwind uwtable
define dso_local i64 @brin_minmax_multi_distance_macaddr(ptr noundef %0) #0 {
  %2 = alloca ptr, align 8
  %3 = alloca double, align 8
  %4 = alloca ptr, align 8
  %5 = alloca ptr, align 8
  store ptr %0, ptr %2, align 8
  call void @llvm.lifetime.start.p0(i64 8, ptr %3) #8
  call void @llvm.lifetime.start.p0(i64 8, ptr %4) #8
  %6 = load ptr, ptr %2, align 8
  %7 = getelementptr inbounds nuw %struct.FunctionCallInfoBaseData, ptr %6, i32 0, i32 6
  %8 = getelementptr inbounds [0 x %struct.NullableDatum], ptr %7, i64 0, i64 0
  %9 = getelementptr inbounds nuw %struct.NullableDatum, ptr %8, i32 0, i32 0
  %10 = load i64, ptr %9, align 8
  %11 = call ptr @DatumGetMacaddrP(i64 noundef %10)
  store ptr %11, ptr %4, align 8
  call void @llvm.lifetime.start.p0(i64 8, ptr %5) #8
  %12 = load ptr, ptr %2, align 8
  %13 = getelementptr inbounds nuw %struct.FunctionCallInfoBaseData, ptr %12, i32 0, i32 6
  %14 = getelementptr inbounds [0 x %struct.NullableDatum], ptr %13, i64 0, i64 1
  %15 = getelementptr inbounds nuw %struct.NullableDatum, ptr %14, i32 0, i32 0
  %16 = load i64, ptr %15, align 8
  %17 = call ptr @DatumGetMacaddrP(i64 noundef %16)
  store ptr %17, ptr %5, align 8
  %18 = load ptr, ptr %5, align 8
  %19 = getelementptr inbounds nuw %struct.macaddr, ptr %18, i32 0, i32 5
  %20 = load i8, ptr %19, align 1
  %21 = uitofp i8 %20 to double
  %22 = load ptr, ptr %4, align 8
  %23 = getelementptr inbounds nuw %struct.macaddr, ptr %22, i32 0, i32 5
  %24 = load i8, ptr %23, align 1
  %25 = uitofp i8 %24 to double
  %26 = fsub double %21, %25
  store double %26, ptr %3, align 8
  %27 = load double, ptr %3, align 8
  %28 = fdiv double %27, 2.560000e+02
  store double %28, ptr %3, align 8
  %29 = load ptr, ptr %5, align 8
  %30 = getelementptr inbounds nuw %struct.macaddr, ptr %29, i32 0, i32 4
  %31 = load i8, ptr %30, align 1
  %32 = uitofp i8 %31 to double
  %33 = load ptr, ptr %4, align 8
  %34 = getelementptr inbounds nuw %struct.macaddr, ptr %33, i32 0, i32 4
  %35 = load i8, ptr %34, align 1
  %36 = uitofp i8 %35 to double
  %37 = fsub double %32, %36
  %38 = load double, ptr %3, align 8
  %39 = fadd double %38, %37
  store double %39, ptr %3, align 8
  %40 = load double, ptr %3, align 8
  %41 = fdiv double %40, 2.560000e+02
  store double %41, ptr %3, align 8
  %42 = load ptr, ptr %5, align 8
  %43 = getelementptr inbounds nuw %struct.macaddr, ptr %42, i32 0, i32 3
  %44 = load i8, ptr %43, align 1
  %45 = uitofp i8 %44 to double
  %46 = load ptr, ptr %4, align 8
  %47 = getelementptr inbounds nuw %struct.macaddr, ptr %46, i32 0, i32 3
  %48 = load i8, ptr %47, align 1
  %49 = uitofp i8 %48 to double
  %50 = fsub double %45, %49
  %51 = load double, ptr %3, align 8
  %52 = fadd double %51, %50
  store double %52, ptr %3, align 8
  %53 = load double, ptr %3, align 8
  %54 = fdiv double %53, 2.560000e+02
  store double %54, ptr %3, align 8
  %55 = load ptr, ptr %5, align 8
  %56 = getelementptr inbounds nuw %struct.macaddr, ptr %55, i32 0, i32 2
  %57 = load i8, ptr %56, align 1
  %58 = uitofp i8 %57 to double
  %59 = load ptr, ptr %4, align 8
  %60 = getelementptr inbounds nuw %struct.macaddr, ptr %59, i32 0, i32 2
  %61 = load i8, ptr %60, align 1
  %62 = uitofp i8 %61 to double
  %63 = fsub double %58, %62
  %64 = load double, ptr %3, align 8
  %65 = fadd double %64, %63
  store double %65, ptr %3, align 8
  %66 = load double, ptr %3, align 8
  %67 = fdiv double %66, 2.560000e+02
  store double %67, ptr %3, align 8
  %68 = load ptr, ptr %5, align 8
  %69 = getelementptr inbounds nuw %struct.macaddr, ptr %68, i32 0, i32 1
  %70 = load i8, ptr %69, align 1
  %71 = uitofp i8 %70 to double
  %72 = load ptr, ptr %4, align 8
  %73 = getelementptr inbounds nuw %struct.macaddr, ptr %72, i32 0, i32 1
  %74 = load i8, ptr %73, align 1
  %75 = uitofp i8 %74 to double
  %76 = fsub double %71, %75
  %77 = load double, ptr %3, align 8
  %78 = fadd double %77, %76
  store double %78, ptr %3, align 8
  %79 = load double, ptr %3, align 8
  %80 = fdiv double %79, 2.560000e+02
  store double %80, ptr %3, align 8
  %81 = load ptr, ptr %5, align 8
  %82 = getelementptr inbounds nuw %struct.macaddr, ptr %81, i32 0, i32 0
  %83 = load i8, ptr %82, align 1
  %84 = uitofp i8 %83 to double
  %85 = load ptr, ptr %4, align 8
  %86 = getelementptr inbounds nuw %struct.macaddr, ptr %85, i32 0, i32 0
  %87 = load i8, ptr %86, align 1
  %88 = uitofp i8 %87 to double
  %89 = fsub double %84, %88
  %90 = load double, ptr %3, align 8
  %91 = fadd double %90, %89
  store double %91, ptr %3, align 8
  %92 = load double, ptr %3, align 8
  %93 = fdiv double %92, 2.560000e+02
  store double %93, ptr %3, align 8
  %94 = load double, ptr %3, align 8
  %95 = call i64 @Float8GetDatum(double noundef %94)
  call void @llvm.lifetime.end.p0(i64 8, ptr %5) #8
  call void @llvm.lifetime.end.p0(i64 8, ptr %4) #8
  call void @llvm.lifetime.end.p0(i64 8, ptr %3) #8
  ret i64 %95
}